#include <math.h>
#include <stdio.h>
#include <stdlib.h>
#include <string.h>


int main()
{    
	int a, n ,sum=0;
	 scanf("%d",&a);
	 for(n=1;n<=a;n++)
	 {
		 if(n%7==0)
			 sum=sum;

		 else if(n%10==7)
			 sum=sum;



		 else if (n%10!=7&&(n/10)%10==7)
			 sum=sum;
		 else
			 sum += n*n;
     }
	printf("%d",sum);
	return 0;
}